target datalayout = "e-m:e-p270:32:32-p271:32:32-p272:64:64-i64:64-i128:128-f80:128-n8:16:32:64-S128"
target triple = "x86_64-pc-linux-gnu"

%struct.H5O_copy_dtype_merge_list_t = type { ptr, ptr }

@H5_libterm_g = external global i8, align 1
@H5P_init_g = external global i8, align 1

; Function Attrs: nounwind uwtable
define internal i32 @H5P__ocpy_merge_comm_dt_list_enc(ptr noundef %0, ptr noundef %1, ptr noundef %2) #0 {
  %4 = alloca ptr, align 8
  %5 = alloca ptr, align 8
  %6 = alloca ptr, align 8
  %7 = alloca ptr, align 8
  %8 = alloca ptr, align 8
  %9 = alloca ptr, align 8
  %10 = alloca i64, align 8
  store ptr %0, ptr %4, align 8, !tbaa !30
  store ptr %1, ptr %5, align 8, !tbaa !30
  store ptr %2, ptr %6, align 8, !tbaa !34
  call void @llvm.lifetime.start.p0(i64 8, ptr %7) #7
  %11 = load ptr, ptr %4, align 8, !tbaa !30
  store ptr %11, ptr %7, align 8, !tbaa !36
  call void @llvm.lifetime.start.p0(i64 8, ptr %8) #7
  %12 = load ptr, ptr %5, align 8, !tbaa !30
  store ptr %12, ptr %8, align 8, !tbaa !38
  call void @llvm.lifetime.start.p0(i64 8, ptr %9) #7
  call void @llvm.lifetime.start.p0(i64 8, ptr %10) #7
  %13 = load i8, ptr @H5P_init_g, align 1, !tbaa !10, !range !12, !noundef !13
  %14 = trunc i8 %13 to i1
  br i1 %14, label %19, label %15

15:                                               ; preds = %3
  %16 = load i8, ptr @H5_libterm_g, align 1, !tbaa !10, !range !12, !noundef !13
  %17 = trunc i8 %16 to i1
  %18 = xor i1 %17, true
  br label %19

19:                                               ; preds = %15, %3
  %20 = phi i1 [ true, %3 ], [ %18, %15 ]
  %21 = xor i1 %20, true
  %22 = xor i1 %21, true
  %23 = zext i1 %22 to i32
  %24 = sext i32 %23 to i64
  %25 = call i64 @llvm.expect.i64(i64 %24, i64 1)
  %26 = icmp ne i64 %25, 0
  br i1 %26, label %27, label %73

27:                                               ; preds = %19
  %28 = load ptr, ptr %7, align 8, !tbaa !36
  %29 = load ptr, ptr %28, align 8, !tbaa !22
  store ptr %29, ptr %9, align 8, !tbaa !22
  br label %30

30:                                               ; preds = %53, %27
  %31 = load ptr, ptr %9, align 8, !tbaa !22
  %32 = icmp ne ptr %31, null
  br i1 %32, label %33, label %61

33:                                               ; preds = %30
  %34 = load ptr, ptr %9, align 8, !tbaa !22
  %35 = getelementptr inbounds nuw %struct.H5O_copy_dtype_merge_list_t, ptr %34, i32 0, i32 0
  %36 = load ptr, ptr %35, align 8, !tbaa !25
  %37 = call i64 @strlen(ptr noundef %36) #8
  %38 = add i64 %37, 1
  store i64 %38, ptr %10, align 8, !tbaa !14
  %39 = load ptr, ptr %8, align 8, !tbaa !38
  %40 = load ptr, ptr %39, align 8, !tbaa !20
  %41 = icmp ne ptr %40, null
  br i1 %41, label %42, label %53

42:                                               ; preds = %33
  %43 = load ptr, ptr %8, align 8, !tbaa !38
  %44 = load ptr, ptr %43, align 8, !tbaa !20
  %45 = load ptr, ptr %9, align 8, !tbaa !22
  %46 = getelementptr inbounds nuw %struct.H5O_copy_dtype_merge_list_t, ptr %45, i32 0, i32 0
  %47 = load ptr, ptr %46, align 8, !tbaa !25
  %48 = load i64, ptr %10, align 8, !tbaa !14
  call void @llvm.memcpy.p0.p0.i64(ptr align 1 %44, ptr align 1 %47, i64 %48, i1 false)
  %49 = load i64, ptr %10, align 8, !tbaa !14
  %50 = load ptr, ptr %8, align 8, !tbaa !38
  %51 = load ptr, ptr %50, align 8, !tbaa !20
  %52 = getelementptr inbounds nuw i8, ptr %51, i64 %49
  store ptr %52, ptr %50, align 8, !tbaa !20
  br label %53

53:                                               ; preds = %42, %33
  %54 = load i64, ptr %10, align 8, !tbaa !14
  %55 = load ptr, ptr %6, align 8, !tbaa !34
  %56 = load i64, ptr %55, align 8, !tbaa !14
  %57 = add i64 %56, %54
  store i64 %57, ptr %55, align 8, !tbaa !14
  %58 = load ptr, ptr %9, align 8, !tbaa !22
  %59 = getelementptr inbounds nuw %struct.H5O_copy_dtype_merge_list_t, ptr %58, i32 0, i32 1
  %60 = load ptr, ptr %59, align 8, !tbaa !27
  store ptr %60, ptr %9, align 8, !tbaa !22
  br label %30, !llvm.loop !40

61:                                               ; preds = %30
  %62 = load ptr, ptr %8, align 8, !tbaa !38
  %63 = load ptr, ptr %62, align 8, !tbaa !20
  %64 = icmp ne ptr %63, null
  br i1 %64, label %65, label %69

65:                                               ; preds = %61
  %66 = load ptr, ptr %8, align 8, !tbaa !38
  %67 = load ptr, ptr %66, align 8, !tbaa !20
  %68 = getelementptr inbounds nuw i8, ptr %67, i32 1
  store ptr %68, ptr %66, align 8, !tbaa !20
  store i8 0, ptr %67, align 1, !tbaa !24
  br label %69

69:                                               ; preds = %65, %61
  %70 = load ptr, ptr %6, align 8, !tbaa !34
  %71 = load i64, ptr %70, align 8, !tbaa !14
  %72 = add i64 %71, 1
  store i64 %72, ptr %70, align 8, !tbaa !14
  br label %73

73:                                               ; preds = %69, %19
  call void @llvm.lifetime.end.p0(i64 8, ptr %10) #7
  call void @llvm.lifetime.end.p0(i64 8, ptr %9) #7
  call void @llvm.lifetime.end.p0(i64 8, ptr %8) #7
  call void @llvm.lifetime.end.p0(i64 8, ptr %7) #7
  ret i32 0
}