; Function Attrs: nofree nounwind memory(readwrite, inaccessiblemem: none) uwtable
define internal noundef i32 @H5P__ocpy_merge_comm_dt_list_enc(ptr noundef readonly captures(none) %0, ptr noundef captures(none) %1, ptr noundef captures(none) %2) #4 {
  %4 = load i8, ptr @H5P_init_g, align 1, !tbaa !3, !range !7, !noundef !8
  %5 = trunc nuw i8 %4 to i1
  %6 = load i8, ptr @H5_libterm_g, align 1, !range !7
  %7 = trunc nuw i8 %6 to i1
  %8 = xor i1 %7, true
  %9 = select i1 %5, i1 true, i1 %8
  br i1 %9, label %.preheader, label %37, !prof !9

.preheader:                                       ; preds = %3
  %.020 = load ptr, ptr %0, align 8, !tbaa !18
  %.not21 = icmp eq ptr %.020, null
  %.pre = load ptr, ptr %1, align 8, !tbaa !32
  br i1 %.not21, label %._crit_edge, label %.lr.ph

.lr.ph:                                           ; preds = %.preheader
  %10 = icmp eq ptr %.pre, null
  br i1 %10, label %.lr.ph.split.us, label %.lr.ph.split

.lr.ph.split.us:                                  ; preds = %.lr.ph
  %.promoted = load i64, ptr %2, align 8, !tbaa !10
  br label %11

11:                                               ; preds = %11, %.lr.ph.split.us
  %12 = phi i64 [ %.promoted, %.lr.ph.split.us ], [ %16, %11 ]
  %.022.us = phi ptr [ %.020, %.lr.ph.split.us ], [ %.0.us, %11 ]
  %13 = load ptr, ptr %.022.us, align 8, !tbaa !23
  %14 = tail call i64 @strlen(ptr noundef nonnull dereferenceable(1) %13) #9
  %15 = add i64 %14, 1
  %16 = add i64 %12, %15
  store i64 %16, ptr %2, align 8, !tbaa !10
  %17 = getelementptr inbounds nuw i8, ptr %.022.us, i64 8
  %.0.us = load ptr, ptr %17, align 8, !tbaa !18
  %.not.us = icmp eq ptr %.0.us, null
  br i1 %.not.us, label %._crit_edge.thread, label %11, !llvm.loop !33

.lr.ph.split:                                     ; preds = %.lr.ph, %26
  %18 = phi ptr [ %27, %26 ], [ %.pre, %.lr.ph ]
  %19 = phi ptr [ %28, %26 ], [ %.pre, %.lr.ph ]
  %.022 = phi ptr [ %.0, %26 ], [ %.020, %.lr.ph ]
  %20 = load ptr, ptr %.022, align 8, !tbaa !23
  %21 = tail call i64 @strlen(ptr noundef nonnull dereferenceable(1) %20) #9
  %22 = add i64 %21, 1
  %.not19 = icmp eq ptr %19, null
  br i1 %.not19, label %26, label %23

23:                                               ; preds = %.lr.ph.split
  tail call void @llvm.memcpy.p0.p0.i64(ptr nonnull align 1 %19, ptr nonnull align 1 %20, i64 %22, i1 false)
  %24 = load ptr, ptr %1, align 8, !tbaa !32
  %25 = getelementptr inbounds nuw i8, ptr %24, i64 %22
  store ptr %25, ptr %1, align 8, !tbaa !32
  br label %26

26:                                               ; preds = %23, %.lr.ph.split
  %27 = phi ptr [ %25, %23 ], [ %18, %.lr.ph.split ]
  %28 = phi ptr [ %25, %23 ], [ null, %.lr.ph.split ]
  %29 = load i64, ptr %2, align 8, !tbaa !10
  %30 = add i64 %29, %22
  store i64 %30, ptr %2, align 8, !tbaa !10
  %31 = getelementptr inbounds nuw i8, ptr %.022, i64 8
  %.0 = load ptr, ptr %31, align 8, !tbaa !18
  %.not = icmp eq ptr %.0, null
  br i1 %.not, label %._crit_edge, label %.lr.ph.split, !llvm.loop !35

._crit_edge:                                      ; preds = %26, %.preheader
  %32 = phi ptr [ %.pre, %.preheader ], [ %27, %26 ]
  %.not18 = icmp eq ptr %32, null
  br i1 %.not18, label %._crit_edge.thread, label %33

33:                                               ; preds = %._crit_edge
  %34 = getelementptr inbounds nuw i8, ptr %32, i64 1
  store ptr %34, ptr %1, align 8, !tbaa !32
  store i8 0, ptr %32, align 1, !tbaa !22
  br label %._crit_edge.thread

._crit_edge.thread:                               ; preds = %11, %33, %._crit_edge
  %35 = load i64, ptr %2, align 8, !tbaa !10
  %36 = add i64 %35, 1
  store i64 %36, ptr %2, align 8, !tbaa !10
  br label %37

37:                                               ; preds = %._crit_edge.thread, %3
  ret i32 0
}